; Function Attrs: mustprogress nounwind ssp uwtable
define void @_ZN6open3d2io3rpc24GetZMQMessageDataAndSizeERKN3zmq9message_tE(ptr dead_on_unwind noalias writable writeonly sret(%"class.std::tuple.206") align 8 captures(none) %0, ptr noundef nonnull align 8 dereferenceable(64) %1) local_unnamed_addr #12 personality ptr @__gxx_personality_v0 {
  %3 = invoke ptr @zmq_msg_data(ptr noundef nonnull align 8 dereferenceable(64) %1)
          to label %_ZNK3zmq9message_t4dataEv.exit unwind label %4

4:                                                ; preds = %2
  %5 = landingpad { ptr, i32 }
          catch ptr null
  %6 = extractvalue { ptr, i32 } %5, 0
  tail call void @__clang_call_terminate(ptr %6) #41
  unreachable

_ZNK3zmq9message_t4dataEv.exit:                   ; preds = %2
  %7 = invoke i64 @zmq_msg_size(ptr noundef nonnull align 8 dereferenceable(64) %1)
          to label %_ZNK3zmq9message_t4sizeEv.exit unwind label %8

8:                                                ; preds = %_ZNK3zmq9message_t4dataEv.exit
  %9 = landingpad { ptr, i32 }
          catch ptr null
  %10 = extractvalue { ptr, i32 } %9, 0
  tail call void @__clang_call_terminate(ptr %10) #41
  unreachable

_ZNK3zmq9message_t4sizeEv.exit:                   ; preds = %_ZNK3zmq9message_t4dataEv.exit
  store i64 %7, ptr %0, align 8, !tbaa !837, !alias.scope !839
  %11 = getelementptr inbounds nuw i8, ptr %0, i64 8
  store ptr %3, ptr %11, align 8, !tbaa !842, !alias.scope !839
  ret void
}